target datalayout = "e-m:e-p270:32:32-p271:32:32-p272:64:64-i64:64-i128:128-f80:128-n8:16:32:64-S128"
target triple = "x86_64-pc-linux-gnu"

%"class.casadi::SXElem" = type { ptr }

@_ZN6casadi13casadi_limitsINS_6SXElemEE3infE = global %"class.casadi::SXElem" zeroinitializer, align 8
@_ZN6casadi6SXElemC1ERKS0_ = unnamed_addr alias void (ptr, ptr), ptr @_ZN6casadi6SXElemC2ERKS0_

; Function Attrs: mustprogress nounwind uwtable
define void @_ZNSt14numeric_limitsIN6casadi6SXElemEE8infinityEv(ptr dead_on_unwind noalias writable sret(%"class.casadi::SXElem") align 8 %0) #4 align 2 personality ptr @__gxx_personality_v0 {
  %2 = alloca ptr, align 8
  store ptr %0, ptr %2, align 8
  invoke void @_ZN6casadi6SXElemC1ERKS0_(ptr noundef nonnull align 8 dereferenceable(8) %0, ptr noundef nonnull align 8 dereferenceable(8) @_ZN6casadi13casadi_limitsINS_6SXElemEE3infE)
          to label %3 unwind label %4

3:                                                ; preds = %1
  ret void

4:                                                ; preds = %1
  %5 = landingpad { ptr, i32 }
          catch ptr null
  %6 = extractvalue { ptr, i32 } %5, 0
  call void @__clang_call_terminate(ptr %6) #18
  unreachable
}